; Function Attrs: nounwind uwtable
define hidden ptr @lj_lib_checkfunc(ptr noundef %0, i32 noundef %1) local_unnamed_addr #0 {
  %3 = getelementptr inbounds nuw i8, ptr %0, i64 32
  %4 = load ptr, ptr %3, align 8, !tbaa !17
  %5 = sext i32 %1 to i64
  %6 = getelementptr inbounds %union.TValue, ptr %4, i64 %5
  %7 = getelementptr inbounds i8, ptr %6, i64 -8
  %8 = getelementptr inbounds nuw i8, ptr %0, i64 40
  %9 = load ptr, ptr %8, align 8, !tbaa !16
  %10 = icmp ult ptr %7, %9
  br i1 %10, label %11, label %14

11:                                               ; preds = %2
  %12 = load i64, ptr %7, align 8, !tbaa !14
  %.mask = and i64 %12, -140737488355328
  %13 = icmp eq i64 %.mask, -1266637395197952
  br i1 %13, label %15, label %14

14:                                               ; preds = %11, %2
  tail call void @lj_err_argt(ptr noundef nonnull %0, i32 noundef %1, i32 noundef 6) #9
  unreachable

15:                                               ; preds = %11
  %16 = and i64 %12, 140737488355327
  %17 = inttoptr i64 %16 to ptr
  ret ptr %17
}